target datalayout = "e-m:e-p270:32:32-p271:32:32-p272:64:64-i64:64-f80:128-n8:16:32:64-S128"
target triple = "x86_64-pc-linux-gnu"

@.str = private unnamed_addr constant [3 x i8] c"%d\00", align 1
@.str.1 = private unnamed_addr constant [3 x i8] c"%s\00", align 1
@.str.2 = private unnamed_addr constant [2 x i8] c"\0A\00", align 1
@.str.3 = private unnamed_addr constant [4 x i8] c"%s\0A\00", align 1

; Function Attrs: noinline nounwind uwtable
define dso_local void @main() #0 {
  %1 = alloca i32, align 4
  %2 = alloca i32, align 4
  %3 = alloca i32, align 4
  %4 = alloca [50 x i32], align 16
  %5 = alloca [50 x i32], align 16
  %6 = alloca [50 x [100 x i8]], align 16
  %7 = alloca [50 x [100 x i8]], align 16
  %8 = alloca [50 x [100 x i8]], align 16
  %9 = bitcast [50 x [100 x i8]]* %8 to i8*
  call void @llvm.memset.p0i8.i64(i8* align 16 %9, i8 0, i64 5000, i1 false)
  %10 = call i32 (i8*, ...) @__isoc99_scanf(i8* getelementptr inbounds ([3 x i8], [3 x i8]* @.str, i64 0, i64 0), i32* %3)
  store i32 0, i32* %1, align 4
  br label %11

11:                                               ; preds = %45, %0
  %12 = load i32, i32* %1, align 4
  %13 = load i32, i32* %3, align 4
  %14 = icmp slt i32 %12, %13
  br i1 %14, label %15, label %48

15:                                               ; preds = %11
  %16 = load i32, i32* %1, align 4
  %17 = sext i32 %16 to i64
  %18 = getelementptr inbounds [50 x [100 x i8]], [50 x [100 x i8]]* %6, i64 0, i64 %17
  %19 = getelementptr inbounds [100 x i8], [100 x i8]* %18, i64 0, i64 0
  %20 = call i32 (i8*, ...) @__isoc99_scanf(i8* getelementptr inbounds ([3 x i8], [3 x i8]* @.str.1, i64 0, i64 0), i8* %19)
  %21 = load i32, i32* %1, align 4
  %22 = sext i32 %21 to i64
  %23 = getelementptr inbounds [50 x [100 x i8]], [50 x [100 x i8]]* %7, i64 0, i64 %22
  %24 = getelementptr inbounds [100 x i8], [100 x i8]* %23, i64 0, i64 0
  %25 = call i32 (i8*, ...) @__isoc99_scanf(i8* getelementptr inbounds ([3 x i8], [3 x i8]* @.str.1, i64 0, i64 0), i8* %24)
  %26 = load i32, i32* %1, align 4
  %27 = sext i32 %26 to i64
  %28 = getelementptr inbounds [50 x [100 x i8]], [50 x [100 x i8]]* %6, i64 0, i64 %27
  %29 = getelementptr inbounds [100 x i8], [100 x i8]* %28, i64 0, i64 0
  %30 = call i64 @strlen(i8* %29) #4
  %31 = trunc i64 %30 to i32
  %32 = load i32, i32* %1, align 4
  %33 = sext i32 %32 to i64
  %34 = getelementptr inbounds [50 x i32], [50 x i32]* %4, i64 0, i64 %33
  store i32 %31, i32* %34, align 4
  %35 = load i32, i32* %1, align 4
  %36 = sext i32 %35 to i64
  %37 = getelementptr inbounds [50 x [100 x i8]], [50 x [100 x i8]]* %7, i64 0, i64 %36
  %38 = getelementptr inbounds [100 x i8], [100 x i8]* %37, i64 0, i64 0
  %39 = call i64 @strlen(i8* %38) #4
  %40 = trunc i64 %39 to i32
  %41 = load i32, i32* %1, align 4
  %42 = sext i32 %41 to i64
  %43 = getelementptr inbounds [50 x i32], [50 x i32]* %5, i64 0, i64 %42
  store i32 %40, i32* %43, align 4
  %44 = call i32 (i8*, ...) @printf(i8* getelementptr inbounds ([2 x i8], [2 x i8]* @.str.2, i64 0, i64 0))
  br label %45

45:                                               ; preds = %15
  %46 = load i32, i32* %1, align 4
  %47 = add nsw i32 %46, 1
  store i32 %47, i32* %1, align 4
  br label %11

48:                                               ; preds = %11
  store i32 0, i32* %1, align 4
  br label %49

49:                                               ; preds = %183, %48
  %50 = load i32, i32* %1, align 4
  %51 = load i32, i32* %3, align 4
  %52 = icmp slt i32 %50, %51
  br i1 %52, label %53, label %186

53:                                               ; preds = %49
  store i32 0, i32* %2, align 4
  br label %54

54:                                               ; preds = %80, %53
  %55 = load i32, i32* %2, align 4
  %56 = load i32, i32* %1, align 4
  %57 = sext i32 %56 to i64
  %58 = getelementptr inbounds [50 x i32], [50 x i32]* %4, i64 0, i64 %57
  %59 = load i32, i32* %58, align 4
  %60 = load i32, i32* %1, align 4
  %61 = sext i32 %60 to i64
  %62 = getelementptr inbounds [50 x i32], [50 x i32]* %5, i64 0, i64 %61
  %63 = load i32, i32* %62, align 4
  %64 = sub nsw i32 %59, %63
  %65 = icmp slt i32 %55, %64
  br i1 %65, label %66, label %83

66:                                               ; preds = %54
  %67 = load i32, i32* %1, align 4
  %68 = sext i32 %67 to i64
  %69 = getelementptr inbounds [50 x [100 x i8]], [50 x [100 x i8]]* %6, i64 0, i64 %68
  %70 = load i32, i32* %2, align 4
  %71 = sext i32 %70 to i64
  %72 = getelementptr inbounds [100 x i8], [100 x i8]* %69, i64 0, i64 %71
  %73 = load i8, i8* %72, align 1
  %74 = load i32, i32* %1, align 4
  %75 = sext i32 %74 to i64
  %76 = getelementptr inbounds [50 x [100 x i8]], [50 x [100 x i8]]* %8, i64 0, i64 %75
  %77 = load i32, i32* %2, align 4
  %78 = sext i32 %77 to i64
  %79 = getelementptr inbounds [100 x i8], [100 x i8]* %76, i64 0, i64 %78
  store i8 %73, i8* %79, align 1
  br label %80

80:                                               ; preds = %66
  %81 = load i32, i32* %2, align 4
  %82 = add nsw i32 %81, 1
  store i32 %82, i32* %2, align 4
  br label %54

83:                                               ; preds = %54
  %84 = load i32, i32* %1, align 4
  %85 = sext i32 %84 to i64
  %86 = getelementptr inbounds [50 x i32], [50 x i32]* %4, i64 0, i64 %85
  %87 = load i32, i32* %86, align 4
  %88 = load i32, i32* %1, align 4
  %89 = sext i32 %88 to i64
  %90 = getelementptr inbounds [50 x i32], [50 x i32]* %5, i64 0, i64 %89
  %91 = load i32, i32* %90, align 4
  %92 = sub nsw i32 %87, %91
  store i32 %92, i32* %2, align 4
  br label %93

93:                                               ; preds = %136, %83
  %94 = load i32, i32* %2, align 4
  %95 = load i32, i32* %1, align 4
  %96 = sext i32 %95 to i64
  %97 = getelementptr inbounds [50 x i32], [50 x i32]* %4, i64 0, i64 %96
  %98 = load i32, i32* %97, align 4
  %99 = icmp slt i32 %94, %98
  br i1 %99, label %100, label %139

100:                                              ; preds = %93
  %101 = load i32, i32* %1, align 4
  %102 = sext i32 %101 to i64
  %103 = getelementptr inbounds [50 x [100 x i8]], [50 x [100 x i8]]* %6, i64 0, i64 %102
  %104 = load i32, i32* %2, align 4
  %105 = sext i32 %104 to i64
  %106 = getelementptr inbounds [100 x i8], [100 x i8]* %103, i64 0, i64 %105
  %107 = load i8, i8* %106, align 1
  %108 = sext i8 %107 to i32
  %109 = load i32, i32* %1, align 4
  %110 = sext i32 %109 to i64
  %111 = getelementptr inbounds [50 x [100 x i8]], [50 x [100 x i8]]* %7, i64 0, i64 %110
  %112 = load i32, i32* %2, align 4
  %113 = load i32, i32* %1, align 4
  %114 = sext i32 %113 to i64
  %115 = getelementptr inbounds [50 x i32], [50 x i32]* %4, i64 0, i64 %114
  %116 = load i32, i32* %115, align 4
  %117 = sub nsw i32 %112, %116
  %118 = load i32, i32* %1, align 4
  %119 = sext i32 %118 to i64
  %120 = getelementptr inbounds [50 x i32], [50 x i32]* %5, i64 0, i64 %119
  %121 = load i32, i32* %120, align 4
  %122 = add nsw i32 %117, %121
  %123 = sext i32 %122 to i64
  %124 = getelementptr inbounds [100 x i8], [100 x i8]* %111, i64 0, i64 %123
  %125 = load i8, i8* %124, align 1
  %126 = sext i8 %125 to i32
  %127 = sub nsw i32 %108, %126
  %128 = add nsw i32 %127, 48
  %129 = trunc i32 %128 to i8
  %130 = load i32, i32* %1, align 4
  %131 = sext i32 %130 to i64
  %132 = getelementptr inbounds [50 x [100 x i8]], [50 x [100 x i8]]* %8, i64 0, i64 %131
  %133 = load i32, i32* %2, align 4
  %134 = sext i32 %133 to i64
  %135 = getelementptr inbounds [100 x i8], [100 x i8]* %132, i64 0, i64 %134
  store i8 %129, i8* %135, align 1
  br label %136

136:                                              ; preds = %100
  %137 = load i32, i32* %2, align 4
  %138 = add nsw i32 %137, 1
  store i32 %138, i32* %2, align 4
  br label %93

139:                                              ; preds = %93
  %140 = load i32, i32* %1, align 4
  %141 = sext i32 %140 to i64
  %142 = getelementptr inbounds [50 x i32], [50 x i32]* %4, i64 0, i64 %141
  %143 = load i32, i32* %142, align 4
  %144 = sub nsw i32 %143, 1
  store i32 %144, i32* %2, align 4
  br label %145

145:                                              ; preds = %179, %139
  %146 = load i32, i32* %2, align 4
  %147 = icmp sge i32 %146, 0
  br i1 %147, label %148, label %182

148:                                              ; preds = %145
  %149 = load i32, i32* %1, align 4
  %150 = sext i32 %149 to i64
  %151 = getelementptr inbounds [50 x [100 x i8]], [50 x [100 x i8]]* %8, i64 0, i64 %150
  %152 = load i32, i32* %2, align 4
  %153 = sext i32 %152 to i64
  %154 = getelementptr inbounds [100 x i8], [100 x i8]* %151, i64 0, i64 %153
  %155 = load i8, i8* %154, align 1
  %156 = sext i8 %155 to i32
  %157 = icmp slt i32 %156, 48
  br i1 %157, label %158, label %178

158:                                              ; preds = %148
  %159 = load i32, i32* %1, align 4
  %160 = sext i32 %159 to i64
  %161 = getelementptr inbounds [50 x [100 x i8]], [50 x [100 x i8]]* %8, i64 0, i64 %160
  %162 = load i32, i32* %2, align 4
  %163 = sext i32 %162 to i64
  %164 = getelementptr inbounds [100 x i8], [100 x i8]* %161, i64 0, i64 %163
  %165 = load i8, i8* %164, align 1
  %166 = sext i8 %165 to i32
  %167 = add nsw i32 %166, 10
  %168 = trunc i32 %167 to i8
  store i8 %168, i8* %164, align 1
  %169 = load i32, i32* %1, align 4
  %170 = sext i32 %169 to i64
  %171 = getelementptr inbounds [50 x [100 x i8]], [50 x [100 x i8]]* %8, i64 0, i64 %170
  %172 = load i32, i32* %2, align 4
  %173 = sub nsw i32 %172, 1
  %174 = sext i32 %173 to i64
  %175 = getelementptr inbounds [100 x i8], [100 x i8]* %171, i64 0, i64 %174
  %176 = load i8, i8* %175, align 1
  %177 = add i8 %176, -1
  store i8 %177, i8* %175, align 1
  br label %178

178:                                              ; preds = %158, %148
  br label %179

179:                                              ; preds = %178
  %180 = load i32, i32* %2, align 4
  %181 = add nsw i32 %180, -1
  store i32 %181, i32* %2, align 4
  br label %145

182:                                              ; preds = %145
  br label %183

183:                                              ; preds = %182
  %184 = load i32, i32* %1, align 4
  %185 = add nsw i32 %184, 1
  store i32 %185, i32* %1, align 4
  br label %49

186:                                              ; preds = %49
  store i32 0, i32* %1, align 4
  br label %187

187:                                              ; preds = %233, %186
  %188 = load i32, i32* %1, align 4
  %189 = load i32, i32* %3, align 4
  %190 = icmp slt i32 %188, %189
  br i1 %190, label %191, label %236

191:                                              ; preds = %187
  %192 = load i32, i32* %1, align 4
  %193 = sext i32 %192 to i64
  %194 = getelementptr inbounds [50 x [100 x i8]], [50 x [100 x i8]]* %8, i64 0, i64 %193
  %195 = getelementptr inbounds [100 x i8], [100 x i8]* %194, i64 0, i64 0
  %196 = load i8, i8* %195, align 4
  %197 = sext i8 %196 to i32
  %198 = icmp eq i32 %197, 48
  br i1 %198, label %199, label %227

199:                                              ; preds = %191
  store i32 0, i32* %2, align 4
  br label %200

200:                                              ; preds = %223, %199
  %201 = load i32, i32* %1, align 4
  %202 = load i32, i32* %1, align 4
  %203 = sext i32 %202 to i64
  %204 = getelementptr inbounds [50 x i32], [50 x i32]* %4, i64 0, i64 %203
  %205 = load i32, i32* %204, align 4
  %206 = sub nsw i32 %205, 1
  %207 = icmp slt i32 %201, %206
  br i1 %207, label %208, label %226

208:                                              ; preds = %200
  %209 = load i32, i32* %1, align 4
  %210 = sext i32 %209 to i64
  %211 = getelementptr inbounds [50 x [100 x i8]], [50 x [100 x i8]]* %8, i64 0, i64 %210
  %212 = load i32, i32* %2, align 4
  %213 = add nsw i32 %212, 1
  %214 = sext i32 %213 to i64
  %215 = getelementptr inbounds [100 x i8], [100 x i8]* %211, i64 0, i64 %214
  %216 = load i8, i8* %215, align 1
  %217 = load i32, i32* %1, align 4
  %218 = sext i32 %217 to i64
  %219 = getelementptr inbounds [50 x [100 x i8]], [50 x [100 x i8]]* %8, i64 0, i64 %218
  %220 = load i32, i32* %2, align 4
  %221 = sext i32 %220 to i64
  %222 = getelementptr inbounds [100 x i8], [100 x i8]* %219, i64 0, i64 %221
  store i8 %216, i8* %222, align 1
  br label %223

223:                                              ; preds = %208
  %224 = load i32, i32* %2, align 4
  %225 = add nsw i32 %224, 1
  store i32 %225, i32* %2, align 4
  br label %200

226:                                              ; preds = %200
  br label %227

227:                                              ; preds = %226, %191
  %228 = load i32, i32* %1, align 4
  %229 = sext i32 %228 to i64
  %230 = getelementptr inbounds [50 x [100 x i8]], [50 x [100 x i8]]* %8, i64 0, i64 %229
  %231 = getelementptr inbounds [100 x i8], [100 x i8]* %230, i64 0, i64 0
  %232 = call i32 (i8*, ...) @printf(i8* getelementptr inbounds ([4 x i8], [4 x i8]* @.str.3, i64 0, i64 0), i8* %231)
  br label %233

233:                                              ; preds = %227
  %234 = load i32, i32* %1, align 4
  %235 = add nsw i32 %234, 1
  store i32 %235, i32* %1, align 4
  br label %187

236:                                              ; preds = %187
  ret void
}